target datalayout = "e-m:e-p270:32:32-p271:32:32-p272:64:64-i64:64-i128:128-f80:128-n8:16:32:64-S128"
target triple = "x86_64-pc-linux-gnu"

%struct.AVCodecContext = type { ptr, i32, i32, ptr, i32, i32, ptr, ptr, ptr, i64, i32, i32, ptr, i32, %struct.AVRational, %struct.AVRational, %struct.AVRational, i32, i32, i32, i32, i32, %struct.AVRational, i32, i32, i32, i32, i32, i32, i32, i32, i32, i32, i32, ptr, ptr, i32, float, float, float, float, float, float, float, float, float, i32, i32, i32, i32, i32, i32, i32, i32, i32, i32, i32, i32, ptr, ptr, ptr, i32, i32, i32, i32, i32, i32, i32, i32, i32, i32, %struct.AVChannelLayout, i32, i32, i32, i32, i32, i32, i32, i32, ptr, i32, i32, i32, float, float, i32, i32, i32, i32, i32, ptr, i64, i64, float, float, i32, i32, ptr, ptr, i32, i32, i32, i32, i32, ptr, ptr, ptr, ptr, i32, i32, [8 x i64], i32, i32, i32, i32, i32, i32, i32, ptr, ptr, i32, i32, i32, i32, i32, i32, i32, i32, i32, i32, ptr, ptr, i32, i32, ptr, ptr, ptr, ptr, i32, i32, i64, i32, i32, i64, ptr, i64, ptr, i32, ptr, i32 }
%struct.AVRational = type { i32, i32 }
%struct.AVChannelLayout = type { i32, i32, %union.anon, ptr }
%union.anon = type { i64 }
%struct.HEVCContext = type { ptr, ptr, ptr, i32, [2 x %struct.HEVCLayerContext], i32, i32, i32, i8, ptr, %struct.HEVCParamSets, %struct.HEVCSEI, ptr, [7 x %struct.RefPicList], ptr, ptr, %struct.SliceHeader, i32, i32, ptr, ptr, i32, i32, i32, i32, i32, i32, i32, %struct.HEVCPredContext, %struct.HEVCDSPContext, %struct.VideoDSPContext, %struct.BswapDSPContext, %struct.H274FilmGrainDatabase, ptr, i32, %struct.HEVCCABACState, ptr, i32, i32, ptr, %struct.H2645Packet, i32, i32, i32, i32, ptr, i32, ptr, i32, ptr, i32, i32, i32, i32, i64, ptr, %struct.DOVIContext }
%struct.HEVCLayerContext = type { [32 x %struct.HEVCFrame], ptr, ptr, i32, i32, ptr, ptr, ptr, ptr, ptr, ptr, ptr, ptr, ptr, ptr, ptr, ptr, [3 x ptr], [3 x ptr], ptr, ptr }
%struct.HEVCFrame = type { %union.anon.0, ptr, i32, ptr, ptr, ptr, i32, i32, ptr, ptr, i32, ptr, i32, i8 }
%union.anon.0 = type { %struct.ProgressFrame }
%struct.ProgressFrame = type { ptr, ptr }
%struct.HEVCParamSets = type { [16 x ptr], [16 x ptr], [64 x ptr] }
%struct.HEVCSEI = type { %struct.H2645SEI, %struct.HEVCSEIPictureHash, %struct.HEVCSEIPictureTiming, i32, %struct.HEVCSEITimeCode, %struct.HEVCSEITDRDI, %struct.HEVCSEIRecoveryPoint }
%struct.H2645SEI = type { %struct.H2645SEIA53Caption, %struct.H2645SEIAFD, %struct.HEVCSEIDynamicHDRPlus, %struct.HEVCSEIDynamicHDRVivid, %struct.HEVCSEILCEVC, %struct.H2645SEIUnregistered, %struct.H2645SEIFramePacking, %struct.H2645SEIDisplayOrientation, %struct.H2645SEIAlternativeTransfer, %struct.H2645SEIAmbientViewingEnvironment, %struct.H2645SEIMasteringDisplay, %struct.H2645SEIContentLight, %struct.AVFilmGrainAFGS1Params, ptr }
%struct.H2645SEIA53Caption = type { ptr }
%struct.H2645SEIAFD = type { i32, i8 }
%struct.HEVCSEIDynamicHDRPlus = type { ptr }
%struct.HEVCSEIDynamicHDRVivid = type { ptr }
%struct.HEVCSEILCEVC = type { ptr }
%struct.H2645SEIUnregistered = type { ptr, i32, i32 }
%struct.H2645SEIFramePacking = type { i32, i32, i32, i32, i32, i32, i32, i32 }
%struct.H2645SEIDisplayOrientation = type { i32, i32, i32, i32 }
%struct.H2645SEIAlternativeTransfer = type { i32, i32 }
%struct.H2645SEIAmbientViewingEnvironment = type { i32, i32, i16, i16 }
%struct.H2645SEIMasteringDisplay = type { i32, [3 x [2 x i16]], [2 x i16], i32, i32 }
%struct.H2645SEIContentLight = type { i32, i16, i16 }
%struct.AVFilmGrainAFGS1Params = type { i32, [8 x ptr] }
%struct.HEVCSEIPictureHash = type { [3 x [16 x i8]], i8 }
%struct.HEVCSEIPictureTiming = type { i32 }
%struct.HEVCSEITimeCode = type { i32, i8, [3 x i8], [3 x i8], [3 x i8], [3 x i8], [3 x i8], [3 x i8], [3 x i16], [3 x i8], [3 x i8], [3 x i8], [3 x i8], [3 x i8], [3 x i8], [3 x i8], [3 x i32] }
%struct.HEVCSEITDRDI = type { i8, i8, i8, i8, [32 x i16], [32 x i16], [32 x i8], [32 x i8], [32 x i8], [32 x i8], [32 x i8], [32 x i16], i8 }
%struct.HEVCSEIRecoveryPoint = type { i16, i8, i8, i8 }
%struct.RefPicList = type { [16 x ptr], [16 x i32], [16 x i32], i32 }
%struct.SliceHeader = type { i32, i32, i32, i32, i32, i32, i8, i8, i8, i8, i8, i32, i32, %struct.ShortTermRPS, ptr, i32, %struct.LongTermRPS, [2 x [32 x i32]], [2 x i8], i8, i8, [2 x i32], [3 x i8], i8, i8, i8, i8, i8, i32, i32, i32, i32, i32, i32, i32, i8, i32, i32, i8, i8, ptr, ptr, ptr, i32, i8, i8, i16, [16 x i16], [16 x [2 x i16]], [16 x [2 x i16]], [16 x i16], [16 x i16], [16 x [2 x i16]], [16 x i16], [16 x [2 x i16]], i32, i32 }
%struct.ShortTermRPS = type { [32 x i32], i32, i8, i8, i8, i8, i16, i8 }
%struct.LongTermRPS = type { [32 x i32], [32 x i8], [32 x i8], i8 }
%struct.HEVCPredContext = type { [4 x ptr], [4 x ptr], ptr, [4 x ptr] }
%struct.HEVCDSPContext = type { ptr, [4 x ptr], ptr, ptr, ptr, [4 x ptr], [4 x ptr], [5 x ptr], [5 x ptr], [2 x ptr], [10 x [2 x [2 x ptr]]], [10 x [2 x [2 x ptr]]], [10 x [2 x [2 x ptr]]], [10 x [2 x [2 x ptr]]], [10 x [2 x [2 x ptr]]], [10 x [2 x [2 x ptr]]], [10 x [2 x [2 x ptr]]], [10 x [2 x [2 x ptr]]], [10 x [2 x [2 x ptr]]], [10 x [2 x [2 x ptr]]], ptr, ptr, ptr, ptr, ptr, ptr, ptr, ptr }
%struct.VideoDSPContext = type { ptr, ptr }
%struct.BswapDSPContext = type { ptr, ptr }
%struct.H274FilmGrainDatabase = type { [13 x [13 x [64 x [64 x i8]]]], [13 x i16], [64 x [64 x i16]] }
%struct.HEVCCABACState = type { [199 x i8], [4 x i8] }
%struct.H2645Packet = type { ptr, %struct.H2645RBSP, i32, i32, i32 }
%struct.H2645RBSP = type { ptr, ptr, i32, i32 }
%struct.DOVIContext = type { ptr, i32, %struct.AVDOVIDecoderConfigurationRecord, %struct.AVDOVIRpuDataHeader, ptr, ptr, ptr, ptr, [16 x ptr], ptr, i32 }
%struct.AVDOVIDecoderConfigurationRecord = type { i8, i8, i8, i8, i8, i8, i8, i8, i8 }
%struct.AVDOVIRpuDataHeader = type { i8, i16, i8, i8, i8, i8, i8, i8, i8, i8, i8, i8, i8, i8, i8, i8, i8 }
%struct._VAPictureParameterBufferHEVC = type { %struct._VAPictureHEVC, [15 x %struct._VAPictureHEVC], i16, i16, %union.anon.3, i8, i8, i8, i8, i8, i8, i8, i8, i8, i8, i8, i8, i8, i8, i8, i8, i8, i8, i8, i8, [19 x i16], [21 x i16], %union.anon.5, i8, i8, i8, i8, i8, i8, i8, i8, i32, [8 x i32] }
%struct._VAPictureHEVC = type { i32, i32, i32, [4 x i32] }
%union.anon.3 = type { %struct.anon.4 }
%struct.anon.4 = type { i32 }
%union.anon.5 = type { %struct.anon.6 }
%struct.anon.6 = type { i32 }
%struct._VAPictureParameterBufferHEVCRext = type { %union.anon.7, i8, i8, i8, i8, i8, [6 x i8], [6 x i8] }
%union.anon.7 = type { %struct.anon.8 }
%struct.anon.8 = type { i32 }
%struct._VAPictureParameterBufferHEVCScc = type { %union.anon.9, i8, i8, i8, [3 x [128 x i16]], i8, i8, i8 }
%union.anon.9 = type { %struct.anon.10 }
%struct.anon.10 = type { i32 }
%struct.VAAPIDecodePictureHEVC = type { %struct._VAPictureParameterBufferHEVCExtension, %struct._VASliceParameterBufferHEVCExtension, ptr, i64, %struct.VAAPIDecodePicture }
%struct._VAPictureParameterBufferHEVCExtension = type { %struct._VAPictureParameterBufferHEVC, %struct._VAPictureParameterBufferHEVCRext, %struct._VAPictureParameterBufferHEVCScc }
%struct._VASliceParameterBufferHEVCExtension = type { %struct._VASliceParameterBufferHEVC, %struct._VASliceParameterBufferHEVCRext }
%struct._VASliceParameterBufferHEVC = type { i32, i32, i32, i32, i32, [2 x [15 x i8]], %union.anon.11, i8, i8, i8, i8, i8, i8, i8, i8, i8, i8, [15 x i8], [15 x i8], [15 x [2 x i8]], [15 x [2 x i8]], [15 x i8], [15 x i8], [15 x [2 x i8]], [15 x [2 x i8]], i8, i16, i16, i16, [2 x i32] }
%union.anon.11 = type { i32 }
%struct._VASliceParameterBufferHEVCRext = type { [15 x i16], [15 x [2 x i16]], [15 x i16], [15 x [2 x i16]], %union.anon.13, i8, i8, i8 }
%union.anon.13 = type { %struct.anon.14 }
%struct.anon.14 = type { i32 }
%struct.VAAPIDecodePicture = type { i32, i32, ptr, i32, i32, ptr, i32 }

; Function Attrs: nounwind uwtable
define internal i32 @vaapi_hevc_end_frame(ptr noundef %0) #0 {
  %2 = alloca i32, align 4
  %3 = alloca ptr, align 8
  %4 = alloca ptr, align 8
  %5 = alloca ptr, align 8
  %6 = alloca ptr, align 8
  %7 = alloca i32, align 4
  %8 = alloca i32, align 4
  %9 = alloca i32, align 4
  store ptr %0, ptr %3, align 8, !tbaa !4
  call void @llvm.lifetime.start.p0(i64 8, ptr %4) #7
  %10 = load ptr, ptr %3, align 8, !tbaa !4
  %11 = getelementptr inbounds nuw %struct.AVCodecContext, ptr %10, i32 0, i32 6
  %12 = load ptr, ptr %11, align 8, !tbaa !9
  store ptr %12, ptr %4, align 8, !tbaa !29
  call void @llvm.lifetime.start.p0(i64 8, ptr %5) #7
  %13 = load ptr, ptr %4, align 8, !tbaa !29
  %14 = getelementptr inbounds nuw %struct.HEVCContext, ptr %13, i32 0, i32 19
  %15 = load ptr, ptr %14, align 8, !tbaa !145
  %16 = getelementptr inbounds nuw %struct.HEVCFrame, ptr %15, i32 0, i32 11
  %17 = load ptr, ptr %16, align 8, !tbaa !146
  store ptr %17, ptr %5, align 8, !tbaa !153
  call void @llvm.lifetime.start.p0(i64 8, ptr %6) #7
  %18 = load ptr, ptr %5, align 8, !tbaa !153
  %19 = getelementptr inbounds nuw %struct.VAAPIDecodePictureHEVC, ptr %18, i32 0, i32 1
  store ptr %19, ptr %6, align 8, !tbaa !338
  call void @llvm.lifetime.start.p0(i64 4, ptr %7) #7
  call void @llvm.lifetime.start.p0(i64 4, ptr %8) #7
  %20 = load ptr, ptr %3, align 8, !tbaa !4
  %21 = getelementptr inbounds nuw %struct.AVCodecContext, ptr %20, i32 0, i32 121
  %22 = load i32, ptr %21, align 8, !tbaa !282
  %23 = icmp sge i32 %22, 4
  %24 = select i1 %23, i64 452, i64 264
  %25 = trunc i64 %24 to i32
  store i32 %25, ptr %8, align 4, !tbaa !141
  %26 = load ptr, ptr %5, align 8, !tbaa !153
  %27 = getelementptr inbounds nuw %struct.VAAPIDecodePictureHEVC, ptr %26, i32 0, i32 3
  %28 = load i64, ptr %27, align 8, !tbaa !343
  %29 = icmp ne i64 %28, 0
  br i1 %29, label %30, label %54

30:                                               ; preds = %1
  %31 = load ptr, ptr %6, align 8, !tbaa !338
  %32 = getelementptr inbounds nuw %struct._VASliceParameterBufferHEVC, ptr %31, i32 0, i32 6
  %33 = load i32, ptr %32, align 4
  %34 = and i32 %33, -2
  %35 = or i32 %34, 1
  store i32 %35, ptr %32, align 4
  %36 = load ptr, ptr %3, align 8, !tbaa !4
  %37 = load ptr, ptr %5, align 8, !tbaa !153
  %38 = getelementptr inbounds nuw %struct.VAAPIDecodePictureHEVC, ptr %37, i32 0, i32 4
  %39 = load ptr, ptr %5, align 8, !tbaa !153
  %40 = getelementptr inbounds nuw %struct.VAAPIDecodePictureHEVC, ptr %39, i32 0, i32 1
  %41 = load i32, ptr %8, align 4, !tbaa !141
  %42 = sext i32 %41 to i64
  %43 = load ptr, ptr %5, align 8, !tbaa !153
  %44 = getelementptr inbounds nuw %struct.VAAPIDecodePictureHEVC, ptr %43, i32 0, i32 2
  %45 = load ptr, ptr %44, align 8, !tbaa !342
  %46 = load ptr, ptr %5, align 8, !tbaa !153
  %47 = getelementptr inbounds nuw %struct.VAAPIDecodePictureHEVC, ptr %46, i32 0, i32 3
  %48 = load i64, ptr %47, align 8, !tbaa !343
  %49 = call i32 @ff_vaapi_decode_make_slice_buffer(ptr noundef %36, ptr noundef %38, ptr noundef %40, i32 noundef 1, i64 noundef %42, ptr noundef %45, i64 noundef %48)
  store i32 %49, ptr %7, align 4, !tbaa !141
  %50 = load i32, ptr %7, align 4, !tbaa !141
  %51 = icmp slt i32 %50, 0
  br i1 %51, label %52, label %53

52:                                               ; preds = %30
  br label %63

53:                                               ; preds = %30
  br label %54

54:                                               ; preds = %53, %1
  %55 = load ptr, ptr %3, align 8, !tbaa !4
  %56 = load ptr, ptr %5, align 8, !tbaa !153
  %57 = getelementptr inbounds nuw %struct.VAAPIDecodePictureHEVC, ptr %56, i32 0, i32 4
  %58 = call i32 @ff_vaapi_decode_issue(ptr noundef %55, ptr noundef %57)
  store i32 %58, ptr %7, align 4, !tbaa !141
  %59 = load i32, ptr %7, align 4, !tbaa !141
  %60 = icmp slt i32 %59, 0
  br i1 %60, label %61, label %62

61:                                               ; preds = %54
  br label %63

62:                                               ; preds = %54
  store i32 0, ptr %2, align 4
  store i32 1, ptr %9, align 4
  br label %69

63:                                               ; preds = %61, %52
  %64 = load ptr, ptr %3, align 8, !tbaa !4
  %65 = load ptr, ptr %5, align 8, !tbaa !153
  %66 = getelementptr inbounds nuw %struct.VAAPIDecodePictureHEVC, ptr %65, i32 0, i32 4
  %67 = call i32 @ff_vaapi_decode_cancel(ptr noundef %64, ptr noundef %66)
  %68 = load i32, ptr %7, align 4, !tbaa !141
  store i32 %68, ptr %2, align 4
  store i32 1, ptr %9, align 4
  br label %69

69:                                               ; preds = %63, %62
  call void @llvm.lifetime.end.p0(i64 4, ptr %8) #7
  call void @llvm.lifetime.end.p0(i64 4, ptr %7) #7
  call void @llvm.lifetime.end.p0(i64 8, ptr %6) #7
  call void @llvm.lifetime.end.p0(i64 8, ptr %5) #7
  call void @llvm.lifetime.end.p0(i64 8, ptr %4) #7
  %70 = load i32, ptr %2, align 4
  ret i32 %70
}