; Function Attrs: nounwind uwtable
define internal range(i32 -2147483648, 1) i32 @vaapi_hevc_end_frame(ptr noundef %0) #0 {
  %2 = getelementptr inbounds nuw i8, ptr %0, i64 32
  %3 = load ptr, ptr %2, align 8, !tbaa !4
  %4 = getelementptr inbounds nuw i8, ptr %3, i64 11592
  %5 = load ptr, ptr %4, align 8, !tbaa !128
  %6 = getelementptr inbounds nuw i8, ptr %5, i64 88
  %7 = load ptr, ptr %6, align 8, !tbaa !129
  %8 = getelementptr inbounds nuw i8, ptr %7, i64 1872
  %9 = load i64, ptr %8, align 8, !tbaa !292
  %.not = icmp eq i64 %9, 0
  br i1 %.not, label %24, label %10

10:                                               ; preds = %1
  %11 = getelementptr inbounds nuw i8, ptr %0, i64 688
  %12 = load i32, ptr %11, align 8, !tbaa !249
  %13 = icmp sgt i32 %12, 3
  %14 = select i1 %13, i64 452, i64 264
  %15 = getelementptr inbounds nuw i8, ptr %7, i64 1408
  %16 = getelementptr inbounds nuw i8, ptr %7, i64 1460
  %17 = load i32, ptr %16, align 4
  %18 = or i32 %17, 1
  store i32 %18, ptr %16, align 4
  %19 = getelementptr inbounds nuw i8, ptr %7, i64 1880
  %20 = getelementptr inbounds nuw i8, ptr %7, i64 1864
  %21 = load ptr, ptr %20, align 8, !tbaa !291
  %22 = tail call i32 @ff_vaapi_decode_make_slice_buffer(ptr noundef nonnull %0, ptr noundef nonnull %19, ptr noundef nonnull %15, i32 noundef 1, i64 noundef %14, ptr noundef %21, i64 noundef %9) #6
  %23 = icmp slt i32 %22, 0
  br i1 %23, label %28, label %24

24:                                               ; preds = %10, %1
  %25 = getelementptr inbounds nuw i8, ptr %7, i64 1880
  %26 = tail call i32 @ff_vaapi_decode_issue(ptr noundef nonnull %0, ptr noundef nonnull %25) #6
  %27 = icmp slt i32 %26, 0
  br i1 %27, label %28, label %31

28:                                               ; preds = %24, %10
  %.019 = phi i32 [ %22, %10 ], [ %26, %24 ]
  %29 = getelementptr inbounds nuw i8, ptr %7, i64 1880
  %30 = tail call i32 @ff_vaapi_decode_cancel(ptr noundef nonnull %0, ptr noundef nonnull %29) #6
  br label %31

31:                                               ; preds = %24, %28
  %.0 = phi i32 [ %.019, %28 ], [ 0, %24 ]
  ret i32 %.0
}